Certificate:
    Data:
        Version: 1 (0x0)
        Serial Number: 1 (0x1)
        Signature Algorithm: sha1WithRSAEncryption
        Issuer: CN=zgdypww, ST=CN, C=CN/emailAddress=zgdypww@cert.com, O=zgdypww
        Validity
            Not Before: May  7 13:51:35 2014 GMT
            Not After : Apr 13 13:51:35 2114 GMT
        Subject: C=CN, ST=BEIJING, L=BEIJING, O=zgdypww, CN=zgdypww
        Subject Public Key Info:
            Public Key Algorithm: rsaEncryption
            RSA Public Key: (1024 bit)
                Modulus (1024 bit):
                    00:a1:ce:dc:58:34:1a:99:29:1c:0f:5e:80:7a:57:
                    74:ca:5e:af:d7:1c:85:7c:37:3a:d2:95:88:3d:07:
                    a3:75:57:c9:21:03:3a:b0:0a:a5:a4:28:7d:79:1d:
                    01:96:ff:f5:7e:00:15:25:f0:51:a8:b8:e5:10:9e:
                    af:ed:86:76:42:dc:38:3b:0c:d9:d9:16:b1:0e:f7:
                    2c:af:41:f5:fd:7d:ce:42:4d:64:a8:5f:a2:09:c1:
                    52:89:74:eb:2e:d2:e9:83:b6:2e:34:0d:cd:9e:fe:
                    c8:04:b2:12:86:b9:bd:8f:30:63:4c:45:f4:5f:60:
                    1d:2f:42:c1:99:1d:1b:41:27
                Exponent: 65537 (0x10001)
    Signature Algorithm: sha1WithRSAEncryption
        8a:d6:cf:8b:94:a6:48:46:94:51:7e:a1:9e:b3:48:99:8a:88:
        e5:9a:63:a5:90:0a:e5:7e:f2:ff:d0:30:c0:a3:67:7f:d8:8a:
        c8:84:38:9f:25:05:29:28:9d:18:21:d8:3d:41:b4:5c:47:85:
        d9:29:8a:5f:e3:d8:7f:03:4c:5c:27:95:da:2f:47:2f:86:8c:
        95:aa:a1:cb:ff:e4:0b:55:53:bb:53:0b:fc:52:5c:0e:80:3f:
        7e:ef:25:ae:6a:85:57:c6:d1:f0:dd:15:fd:4b:0b:e9:ac:6e:
        a0:8d:21:56:4e:b9:e5:e4:22:73:70:82:40:a7:83:43:36:01:
        5c:92
-----BEGIN CERTIFICATE-----
MIICJTCCAY4CAQEwDQYJKoZIhvcNAQEFBQAwXzEQMA4GA1UEAxMHemdkeXB3dzEL
MAkGA1UECBMCQ04xCzAJBgNVBAYTAkNOMR8wHQYJKoZIhvcNAQkBFhB6Z2R5cHd3
QGNlcnQuY29tMRAwDgYDVQQKEwd6Z2R5cHd3MCAXDTE0MDUwNzEzNTEzNVoYDzIx
MTQwNDEzMTM1MTM1WjBVMQswCQYDVQQGEwJDTjEQMA4GA1UECBMHQkVJSklORzEQ
MA4GA1UEBxMHQkVJSklORzEQMA4GA1UEChMHemdkeXB3dzEQMA4GA1UEAxMHemdk
eXB3dzCBnzANBgkqhkiG9w0BAQEFAAOBjQAwgYkCgYEAoc7cWDQamSkcD16Aeld0
yl6v1xyFfDc60pWIPQejdVfJIQM6sAqlpCh9eR0Blv/1fgAVJfBRqLjlEJ6v7YZ2
Qtw4OwzZ2RaxDvcsr0H1/X3OQk1kqF+iCcFSiXTrLtLpg7YuNA3Nnv7IBLIShrm9
jzBjTEX0X2AdL0LBmR0bQScCAwEAATANBgkqhkiG9w0BAQUFAAOBgQCK1s+LlKZI
RpRRfqGes0iZiojlmmOlkArlfvL/0DDAo2d/2IrIhDifJQUpKJ0YIdg9QbRcR4XZ
KYpf49h/A0xcJ5XaL0cvhoyVqqHL/+QLVVO7Uwv8UlwOgD9+7yWuaoVXxtHw3RX9
SwvprG6gjSFWTrnl5CJzcIJAp4NDNgFckg==
-----END CERTIFICATE-----
